target datalayout = "e-m:e-p270:32:32-p271:32:32-p272:64:64-i64:64-i128:128-f80:128-n8:16:32:64-S128"
target triple = "x86_64-pc-linux-gnu"

%struct.AVFilterLink = type { ptr, ptr, ptr, ptr, i32, i32, i32, i32, %struct.AVRational, i32, i32, i32, %struct.AVChannelLayout, %struct.AVRational, ptr, i32, %struct.AVFilterFormatsConfig, %struct.AVFilterFormatsConfig }
%struct.AVChannelLayout = type { i32, i32, %union.anon.1, ptr }
%union.anon.1 = type { i64 }
%struct.AVRational = type { i32, i32 }
%struct.AVFilterFormatsConfig = type { ptr, ptr, ptr, ptr, ptr }
%struct.AVFilterContext = type { ptr, ptr, ptr, ptr, ptr, i32, ptr, ptr, i32, ptr, ptr, i32, i32, ptr, ptr, ptr, ptr, i32, ptr, i32, i32 }
%struct.HueSaturationContext = type { ptr, float, float, float, float, float, float, float, i32, i32, i32, [4 x i32], [4 x i32], [4 x [4 x float]], [4 x [4 x i64]], i32, i32, [4 x i8], [2 x ptr] }
%struct.AVPixFmtDescriptor = type { ptr, i8, i8, i8, i64, [4 x %struct.AVComponentDescriptor], ptr }
%struct.AVComponentDescriptor = type { i32, i32, i32, i32, i32 }

; Function Attrs: cold nounwind optsize uwtable
define internal i32 @config_input(ptr noundef %0) #2 {
  %2 = alloca ptr, align 8
  %3 = alloca ptr, align 8
  %4 = alloca ptr, align 8
  %5 = alloca ptr, align 8
  store ptr %0, ptr %2, align 8, !tbaa !4
  call void @llvm.lifetime.start.p0(i64 8, ptr %3) #9
  %6 = load ptr, ptr %2, align 8, !tbaa !4
  %7 = getelementptr inbounds nuw %struct.AVFilterLink, ptr %6, i32 0, i32 2
  %8 = load ptr, ptr %7, align 8, !tbaa !11
  store ptr %8, ptr %3, align 8, !tbaa !23
  call void @llvm.lifetime.start.p0(i64 8, ptr %4) #9
  %9 = load ptr, ptr %3, align 8, !tbaa !23
  %10 = getelementptr inbounds nuw %struct.AVFilterContext, ptr %9, i32 0, i32 9
  %11 = load ptr, ptr %10, align 8, !tbaa !24
  store ptr %11, ptr %4, align 8, !tbaa !34
  call void @llvm.lifetime.start.p0(i64 8, ptr %5) #9
  %12 = load ptr, ptr %2, align 8, !tbaa !4
  %13 = getelementptr inbounds nuw %struct.AVFilterLink, ptr %12, i32 0, i32 5
  %14 = load i32, ptr %13, align 4, !tbaa !43
  %15 = call ptr @av_pix_fmt_desc_get(i32 noundef %14)
  store ptr %15, ptr %5, align 8, !tbaa !44
  %16 = load ptr, ptr %5, align 8, !tbaa !44
  %17 = getelementptr inbounds nuw %struct.AVPixFmtDescriptor, ptr %16, i32 0, i32 5
  %18 = getelementptr inbounds [4 x %struct.AVComponentDescriptor], ptr %17, i64 0, i64 0
  %19 = getelementptr inbounds nuw %struct.AVComponentDescriptor, ptr %18, i32 0, i32 4
  %20 = load i32, ptr %19, align 8, !tbaa !46
  %21 = load ptr, ptr %4, align 8, !tbaa !34
  %22 = getelementptr inbounds nuw %struct.HueSaturationContext, ptr %21, i32 0, i32 10
  store i32 %20, ptr %22, align 4, !tbaa !48
  %23 = load ptr, ptr %4, align 8, !tbaa !34
  %24 = getelementptr inbounds nuw %struct.HueSaturationContext, ptr %23, i32 0, i32 10
  %25 = load i32, ptr %24, align 4, !tbaa !48
  %26 = ashr i32 %25, 3
  %27 = load ptr, ptr %4, align 8, !tbaa !34
  %28 = getelementptr inbounds nuw %struct.HueSaturationContext, ptr %27, i32 0, i32 15
  store i32 %26, ptr %28, align 8, !tbaa !49
  %29 = load ptr, ptr %5, align 8, !tbaa !44
  %30 = call i32 @av_get_padded_bits_per_pixel(ptr noundef %29)
  %31 = load ptr, ptr %4, align 8, !tbaa !34
  %32 = getelementptr inbounds nuw %struct.HueSaturationContext, ptr %31, i32 0, i32 15
  %33 = load i32, ptr %32, align 8, !tbaa !49
  %34 = icmp eq i32 %33, 2
  %35 = zext i1 %34 to i32
  %36 = add nsw i32 3, %35
  %37 = ashr i32 %30, %36
  %38 = load ptr, ptr %4, align 8, !tbaa !34
  %39 = getelementptr inbounds nuw %struct.HueSaturationContext, ptr %38, i32 0, i32 16
  store i32 %37, ptr %39, align 4, !tbaa !50
  %40 = load ptr, ptr %4, align 8, !tbaa !34
  %41 = getelementptr inbounds nuw %struct.HueSaturationContext, ptr %40, i32 0, i32 17
  %42 = getelementptr inbounds [4 x i8], ptr %41, i64 0, i64 0
  %43 = load ptr, ptr %2, align 8, !tbaa !4
  %44 = getelementptr inbounds nuw %struct.AVFilterLink, ptr %43, i32 0, i32 5
  %45 = load i32, ptr %44, align 4, !tbaa !43
  %46 = call i32 @ff_fill_rgba_map(ptr noundef %42, i32 noundef %45)
  %47 = load ptr, ptr %5, align 8, !tbaa !44
  %48 = getelementptr inbounds nuw %struct.AVPixFmtDescriptor, ptr %47, i32 0, i32 2
  %49 = load i8, ptr %48, align 1, !tbaa !51
  %50 = call i1 @llvm.is.constant.i8(i8 %49)
  br i1 %50, label %62, label %51

51:                                               ; preds = %1
  %52 = load ptr, ptr %2, align 8, !tbaa !4
  %53 = getelementptr inbounds nuw %struct.AVFilterLink, ptr %52, i32 0, i32 6
  %54 = load i32, ptr %53, align 8, !tbaa !54
  %55 = sub nsw i32 0, %54
  %56 = load ptr, ptr %5, align 8, !tbaa !44
  %57 = getelementptr inbounds nuw %struct.AVPixFmtDescriptor, ptr %56, i32 0, i32 2
  %58 = load i8, ptr %57, align 1, !tbaa !51
  %59 = zext i8 %58 to i32
  %60 = ashr i32 %55, %59
  %61 = sub nsw i32 0, %60
  br label %78

62:                                               ; preds = %1
  %63 = load ptr, ptr %2, align 8, !tbaa !4
  %64 = getelementptr inbounds nuw %struct.AVFilterLink, ptr %63, i32 0, i32 6
  %65 = load i32, ptr %64, align 8, !tbaa !54
  %66 = load ptr, ptr %5, align 8, !tbaa !44
  %67 = getelementptr inbounds nuw %struct.AVPixFmtDescriptor, ptr %66, i32 0, i32 2
  %68 = load i8, ptr %67, align 1, !tbaa !51
  %69 = zext i8 %68 to i32
  %70 = shl i32 1, %69
  %71 = add nsw i32 %65, %70
  %72 = sub nsw i32 %71, 1
  %73 = load ptr, ptr %5, align 8, !tbaa !44
  %74 = getelementptr inbounds nuw %struct.AVPixFmtDescriptor, ptr %73, i32 0, i32 2
  %75 = load i8, ptr %74, align 1, !tbaa !51
  %76 = zext i8 %75 to i32
  %77 = ashr i32 %72, %76
  br label %78

78:                                               ; preds = %62, %51
  %79 = phi i32 [ %61, %51 ], [ %77, %62 ]
  %80 = load ptr, ptr %4, align 8, !tbaa !34
  %81 = getelementptr inbounds nuw %struct.HueSaturationContext, ptr %80, i32 0, i32 11
  %82 = getelementptr inbounds [4 x i32], ptr %81, i64 0, i64 2
  store i32 %79, ptr %82, align 8, !tbaa !41
  %83 = load ptr, ptr %4, align 8, !tbaa !34
  %84 = getelementptr inbounds nuw %struct.HueSaturationContext, ptr %83, i32 0, i32 11
  %85 = getelementptr inbounds [4 x i32], ptr %84, i64 0, i64 1
  store i32 %79, ptr %85, align 4, !tbaa !41
  %86 = load ptr, ptr %2, align 8, !tbaa !4
  %87 = getelementptr inbounds nuw %struct.AVFilterLink, ptr %86, i32 0, i32 6
  %88 = load i32, ptr %87, align 8, !tbaa !54
  %89 = load ptr, ptr %4, align 8, !tbaa !34
  %90 = getelementptr inbounds nuw %struct.HueSaturationContext, ptr %89, i32 0, i32 11
  %91 = getelementptr inbounds [4 x i32], ptr %90, i64 0, i64 3
  store i32 %88, ptr %91, align 4, !tbaa !41
  %92 = load ptr, ptr %4, align 8, !tbaa !34
  %93 = getelementptr inbounds nuw %struct.HueSaturationContext, ptr %92, i32 0, i32 11
  %94 = getelementptr inbounds [4 x i32], ptr %93, i64 0, i64 0
  store i32 %88, ptr %94, align 8, !tbaa !41
  %95 = load ptr, ptr %5, align 8, !tbaa !44
  %96 = getelementptr inbounds nuw %struct.AVPixFmtDescriptor, ptr %95, i32 0, i32 3
  %97 = load i8, ptr %96, align 2, !tbaa !55
  %98 = call i1 @llvm.is.constant.i8(i8 %97)
  br i1 %98, label %110, label %99

99:                                               ; preds = %78
  %100 = load ptr, ptr %2, align 8, !tbaa !4
  %101 = getelementptr inbounds nuw %struct.AVFilterLink, ptr %100, i32 0, i32 7
  %102 = load i32, ptr %101, align 4, !tbaa !56
  %103 = sub nsw i32 0, %102
  %104 = load ptr, ptr %5, align 8, !tbaa !44
  %105 = getelementptr inbounds nuw %struct.AVPixFmtDescriptor, ptr %104, i32 0, i32 3
  %106 = load i8, ptr %105, align 2, !tbaa !55
  %107 = zext i8 %106 to i32
  %108 = ashr i32 %103, %107
  %109 = sub nsw i32 0, %108
  br label %126

110:                                              ; preds = %78
  %111 = load ptr, ptr %2, align 8, !tbaa !4
  %112 = getelementptr inbounds nuw %struct.AVFilterLink, ptr %111, i32 0, i32 7
  %113 = load i32, ptr %112, align 4, !tbaa !56
  %114 = load ptr, ptr %5, align 8, !tbaa !44
  %115 = getelementptr inbounds nuw %struct.AVPixFmtDescriptor, ptr %114, i32 0, i32 3
  %116 = load i8, ptr %115, align 2, !tbaa !55
  %117 = zext i8 %116 to i32
  %118 = shl i32 1, %117
  %119 = add nsw i32 %113, %118
  %120 = sub nsw i32 %119, 1
  %121 = load ptr, ptr %5, align 8, !tbaa !44
  %122 = getelementptr inbounds nuw %struct.AVPixFmtDescriptor, ptr %121, i32 0, i32 3
  %123 = load i8, ptr %122, align 2, !tbaa !55
  %124 = zext i8 %123 to i32
  %125 = ashr i32 %120, %124
  br label %126

126:                                              ; preds = %110, %99
  %127 = phi i32 [ %109, %99 ], [ %125, %110 ]
  %128 = load ptr, ptr %4, align 8, !tbaa !34
  %129 = getelementptr inbounds nuw %struct.HueSaturationContext, ptr %128, i32 0, i32 12
  %130 = getelementptr inbounds [4 x i32], ptr %129, i64 0, i64 2
  store i32 %127, ptr %130, align 8, !tbaa !41
  %131 = load ptr, ptr %4, align 8, !tbaa !34
  %132 = getelementptr inbounds nuw %struct.HueSaturationContext, ptr %131, i32 0, i32 12
  %133 = getelementptr inbounds [4 x i32], ptr %132, i64 0, i64 1
  store i32 %127, ptr %133, align 4, !tbaa !41
  %134 = load ptr, ptr %2, align 8, !tbaa !4
  %135 = getelementptr inbounds nuw %struct.AVFilterLink, ptr %134, i32 0, i32 7
  %136 = load i32, ptr %135, align 4, !tbaa !56
  %137 = load ptr, ptr %4, align 8, !tbaa !34
  %138 = getelementptr inbounds nuw %struct.HueSaturationContext, ptr %137, i32 0, i32 12
  %139 = getelementptr inbounds [4 x i32], ptr %138, i64 0, i64 3
  store i32 %136, ptr %139, align 4, !tbaa !41
  %140 = load ptr, ptr %4, align 8, !tbaa !34
  %141 = getelementptr inbounds nuw %struct.HueSaturationContext, ptr %140, i32 0, i32 12
  %142 = getelementptr inbounds [4 x i32], ptr %141, i64 0, i64 0
  store i32 %136, ptr %142, align 8, !tbaa !41
  %143 = load ptr, ptr %4, align 8, !tbaa !34
  %144 = getelementptr inbounds nuw %struct.HueSaturationContext, ptr %143, i32 0, i32 10
  %145 = load i32, ptr %144, align 4, !tbaa !48
  %146 = icmp sle i32 %145, 8
  %147 = select i1 %146, ptr @do_slice_8_0, ptr @do_slice_16_0
  %148 = load ptr, ptr %4, align 8, !tbaa !34
  %149 = getelementptr inbounds nuw %struct.HueSaturationContext, ptr %148, i32 0, i32 18
  %150 = getelementptr inbounds [2 x ptr], ptr %149, i64 0, i64 0
  store ptr %147, ptr %150, align 8, !tbaa !40
  %151 = load ptr, ptr %4, align 8, !tbaa !34
  %152 = getelementptr inbounds nuw %struct.HueSaturationContext, ptr %151, i32 0, i32 10
  %153 = load i32, ptr %152, align 4, !tbaa !48
  %154 = icmp sle i32 %153, 8
  %155 = select i1 %154, ptr @do_slice_8_1, ptr @do_slice_16_1
  %156 = load ptr, ptr %4, align 8, !tbaa !34
  %157 = getelementptr inbounds nuw %struct.HueSaturationContext, ptr %156, i32 0, i32 18
  %158 = getelementptr inbounds [2 x ptr], ptr %157, i64 0, i64 1
  store ptr %155, ptr %158, align 8, !tbaa !40
  call void @llvm.lifetime.end.p0(i64 8, ptr %5) #9
  call void @llvm.lifetime.end.p0(i64 8, ptr %4) #9
  call void @llvm.lifetime.end.p0(i64 8, ptr %3) #9
  ret i32 0
}