; Function Attrs: cold nounwind optsize uwtable
define internal noundef i32 @config_input(ptr noundef readonly captures(none) %0) #2 {
  %2 = getelementptr inbounds nuw i8, ptr %0, i64 16
  %3 = load ptr, ptr %2, align 8, !tbaa !4
  %4 = getelementptr inbounds nuw i8, ptr %3, i64 72
  %5 = load ptr, ptr %4, align 8, !tbaa !19
  %6 = getelementptr inbounds nuw i8, ptr %0, i64 36
  %7 = load i32, ptr %6, align 4, !tbaa !55
  %8 = tail call ptr @av_pix_fmt_desc_get(i32 noundef %7) #10
  %9 = getelementptr inbounds nuw i8, ptr %8, i64 40
  %10 = load i32, ptr %9, align 8, !tbaa !56
  %11 = getelementptr inbounds nuw i8, ptr %5, i64 44
  store i32 %10, ptr %11, align 4, !tbaa !58
  %12 = ashr i32 %10, 3
  %13 = getelementptr inbounds nuw i8, ptr %5, i64 272
  store i32 %12, ptr %13, align 8, !tbaa !59
  %14 = tail call i32 @av_get_padded_bits_per_pixel(ptr noundef %8) #10
  %15 = load i32, ptr %13, align 8, !tbaa !59
  %16 = icmp eq i32 %15, 2
  %17 = select i1 %16, i32 4, i32 3
  %18 = ashr i32 %14, %17
  %19 = getelementptr inbounds nuw i8, ptr %5, i64 276
  store i32 %18, ptr %19, align 4, !tbaa !60
  %20 = getelementptr inbounds nuw i8, ptr %5, i64 280
  %21 = load i32, ptr %6, align 4, !tbaa !55
  %22 = tail call i32 @ff_fill_rgba_map(ptr noundef nonnull %20, i32 noundef %21) #10
  %23 = getelementptr inbounds nuw i8, ptr %0, i64 40
  %24 = load i32, ptr %23, align 8, !tbaa !61
  %25 = sub nsw i32 0, %24
  %26 = getelementptr inbounds nuw i8, ptr %8, i64 9
  %27 = load i8, ptr %26, align 1, !tbaa !62
  %28 = zext nneg i8 %27 to i32
  %29 = ashr i32 %25, %28
  %30 = sub nsw i32 0, %29
  %31 = getelementptr inbounds nuw i8, ptr %5, i64 48
  %32 = getelementptr inbounds nuw i8, ptr %5, i64 56
  store i32 %30, ptr %32, align 8, !tbaa !51
  %33 = getelementptr inbounds nuw i8, ptr %5, i64 52
  store i32 %30, ptr %33, align 4, !tbaa !51
  %34 = getelementptr inbounds nuw i8, ptr %0, i64 40
  %35 = load i32, ptr %34, align 8, !tbaa !61
  %36 = getelementptr inbounds nuw i8, ptr %5, i64 60
  store i32 %35, ptr %36, align 4, !tbaa !51
  store i32 %35, ptr %31, align 8, !tbaa !51
  %37 = getelementptr inbounds nuw i8, ptr %0, i64 44
  %38 = load i32, ptr %37, align 4, !tbaa !64
  %39 = sub nsw i32 0, %38
  %40 = getelementptr inbounds nuw i8, ptr %8, i64 10
  %41 = load i8, ptr %40, align 2, !tbaa !65
  %42 = zext nneg i8 %41 to i32
  %43 = ashr i32 %39, %42
  %44 = sub nsw i32 0, %43
  %45 = getelementptr inbounds nuw i8, ptr %5, i64 64
  %46 = getelementptr inbounds nuw i8, ptr %5, i64 72
  store i32 %44, ptr %46, align 8, !tbaa !51
  %47 = getelementptr inbounds nuw i8, ptr %5, i64 68
  store i32 %44, ptr %47, align 4, !tbaa !51
  %48 = getelementptr inbounds nuw i8, ptr %0, i64 44
  %49 = load i32, ptr %48, align 4, !tbaa !64
  %50 = getelementptr inbounds nuw i8, ptr %5, i64 76
  store i32 %49, ptr %50, align 4, !tbaa !51
  store i32 %49, ptr %45, align 8, !tbaa !51
  %51 = load i32, ptr %11, align 4, !tbaa !58
  %52 = icmp slt i32 %51, 9
  %53 = select i1 %52, ptr @do_slice_8_0, ptr @do_slice_16_0
  %54 = getelementptr inbounds nuw i8, ptr %5, i64 288
  store ptr %53, ptr %54, align 8, !tbaa !50
  %55 = select i1 %52, ptr @do_slice_8_1, ptr @do_slice_16_1
  %56 = getelementptr inbounds nuw i8, ptr %5, i64 296
  store ptr %55, ptr %56, align 8, !tbaa !50
  ret i32 0
}